target datalayout = "e-m:e-p270:32:32-p271:32:32-p272:64:64-i64:64-i128:128-f80:128-n8:16:32:64-S128"
target triple = "x86_64-pc-linux-gnu"

%"class.icu_77::UnicodeString" = type { %"class.icu_77::Replaceable", %"union.icu_77::UnicodeString::StackBufferOrFields" }
%"class.icu_77::Replaceable" = type { %"class.icu_77::UObject" }
%"class.icu_77::UObject" = type { ptr }
%"union.icu_77::UnicodeString::StackBufferOrFields" = type { %struct.anon.0, [32 x i8] }
%struct.anon.0 = type { i16, i32, i32, ptr }
%struct.anon = type { i16, [27 x i16] }

; Function Attrs: inlinehint mustprogress nounwind uwtable
define linkonce_odr noundef ptr @_ZNK6icu_7713UnicodeString13getArrayStartEv(ptr noundef nonnull align 8 dereferenceable(64) %0) #2 comdat align 2 {
  %2 = alloca ptr, align 8
  store ptr %0, ptr %2, align 8, !tbaa !60
  %3 = load ptr, ptr %2, align 8
  %4 = getelementptr inbounds nuw %"class.icu_77::UnicodeString", ptr %3, i32 0, i32 1
  %5 = getelementptr inbounds nuw %struct.anon.0, ptr %4, i32 0, i32 0
  %6 = load i16, ptr %5, align 8, !tbaa !62
  %7 = sext i16 %6 to i32
  %8 = and i32 %7, 2
  %9 = icmp ne i32 %8, 0
  br i1 %9, label %10, label %14

10:                                               ; preds = %1
  %11 = getelementptr inbounds nuw %"class.icu_77::UnicodeString", ptr %3, i32 0, i32 1
  %12 = getelementptr inbounds nuw %struct.anon, ptr %11, i32 0, i32 1
  %13 = getelementptr inbounds [27 x i16], ptr %12, i64 0, i64 0
  br label %18

14:                                               ; preds = %1
  %15 = getelementptr inbounds nuw %"class.icu_77::UnicodeString", ptr %3, i32 0, i32 1
  %16 = getelementptr inbounds nuw %struct.anon.0, ptr %15, i32 0, i32 3
  %17 = load ptr, ptr %16, align 8, !tbaa !62
  br label %18

18:                                               ; preds = %14, %10
  %19 = phi ptr [ %13, %10 ], [ %17, %14 ]
  ret ptr %19
}

; Function Attrs: inlinehint mustprogress uwtable
define linkonce_odr noundef zeroext i16 @_ZNK6icu_7713UnicodeString8doCharAtEi(ptr noundef nonnull align 8 dereferenceable(64) %0, i32 noundef %1) #3 comdat align 2 {
  %3 = alloca i16, align 2
  %4 = alloca ptr, align 8
  %5 = alloca i32, align 4
  store ptr %0, ptr %4, align 8, !tbaa !60
  store i32 %1, ptr %5, align 4, !tbaa !14
  %6 = load ptr, ptr %4, align 8
  %7 = load i32, ptr %5, align 4, !tbaa !14
  %8 = call noundef i32 @_ZNK6icu_7713UnicodeString6lengthEv(ptr noundef nonnull align 8 dereferenceable(64) %6)
  %9 = icmp ult i32 %7, %8
  br i1 %9, label %10, label %16

10:                                               ; preds = %2
  %11 = call noundef ptr @_ZNK6icu_7713UnicodeString13getArrayStartEv(ptr noundef nonnull align 8 dereferenceable(64) %6)
  %12 = load i32, ptr %5, align 4, !tbaa !14
  %13 = sext i32 %12 to i64
  %14 = getelementptr inbounds i16, ptr %11, i64 %13
  %15 = load i16, ptr %14, align 2, !tbaa !104
  store i16 %15, ptr %3, align 2
  br label %17

16:                                               ; preds = %2
  store i16 -1, ptr %3, align 2
  br label %17

17:                                               ; preds = %16, %10
  %18 = load i16, ptr %3, align 2
  ret i16 %18
}

; Function Attrs: inlinehint mustprogress nounwind uwtable
define linkonce_odr noundef i32 @_ZNK6icu_7713UnicodeString14getShortLengthEv(ptr noundef nonnull align 8 dereferenceable(64) %0) #2 comdat align 2 {
  %2 = alloca ptr, align 8
  store ptr %0, ptr %2, align 8, !tbaa !60
  %3 = load ptr, ptr %2, align 8
  %4 = getelementptr inbounds nuw %"class.icu_77::UnicodeString", ptr %3, i32 0, i32 1
  %5 = getelementptr inbounds nuw %struct.anon.0, ptr %4, i32 0, i32 0
  %6 = load i16, ptr %5, align 8, !tbaa !62
  %7 = sext i16 %6 to i32
  %8 = ashr i32 %7, 5
  ret i32 %8
}

; Function Attrs: inlinehint mustprogress nounwind uwtable
define linkonce_odr noundef signext i8 @_ZNK6icu_7713UnicodeString14hasShortLengthEv(ptr noundef nonnull align 8 dereferenceable(64) %0) #2 comdat align 2 {
  %2 = alloca ptr, align 8
  store ptr %0, ptr %2, align 8, !tbaa !60
  %3 = load ptr, ptr %2, align 8
  %4 = getelementptr inbounds nuw %"class.icu_77::UnicodeString", ptr %3, i32 0, i32 1
  %5 = getelementptr inbounds nuw %struct.anon.0, ptr %4, i32 0, i32 0
  %6 = load i16, ptr %5, align 8, !tbaa !62
  %7 = sext i16 %6 to i32
  %8 = icmp sge i32 %7, 0
  %9 = zext i1 %8 to i8
  ret i8 %9
}

; Function Attrs: inlinehint mustprogress uwtable
define linkonce_odr noundef zeroext i16 @_ZNK6icu_7713UnicodeString6charAtEi(ptr noundef nonnull align 8 dereferenceable(64) %0, i32 noundef %1) #3 comdat align 2 {
  %3 = alloca ptr, align 8
  %4 = alloca i32, align 4
  store ptr %0, ptr %3, align 8, !tbaa !60
  store i32 %1, ptr %4, align 4, !tbaa !14
  %5 = load ptr, ptr %3, align 8
  %6 = load i32, ptr %4, align 4, !tbaa !14
  %7 = call noundef zeroext i16 @_ZNK6icu_7713UnicodeString8doCharAtEi(ptr noundef nonnull align 8 dereferenceable(64) %5, i32 noundef %6)
  ret i16 %7
}

; Function Attrs: inlinehint mustprogress uwtable
define linkonce_odr noundef i32 @_ZNK6icu_7713UnicodeString6lengthEv(ptr noundef nonnull align 8 dereferenceable(64) %0) #3 comdat align 2 {
  %2 = alloca ptr, align 8
  store ptr %0, ptr %2, align 8, !tbaa !60
  %3 = load ptr, ptr %2, align 8
  %4 = call noundef signext i8 @_ZNK6icu_7713UnicodeString14hasShortLengthEv(ptr noundef nonnull align 8 dereferenceable(64) %3)
  %5 = icmp ne i8 %4, 0
  br i1 %5, label %6, label %8

6:                                                ; preds = %1
  %7 = call noundef i32 @_ZNK6icu_7713UnicodeString14getShortLengthEv(ptr noundef nonnull align 8 dereferenceable(64) %3)
  br label %12

8:                                                ; preds = %1
  %9 = getelementptr inbounds nuw %"class.icu_77::UnicodeString", ptr %3, i32 0, i32 1
  %10 = getelementptr inbounds nuw %struct.anon.0, ptr %9, i32 0, i32 1
  %11 = load i32, ptr %10, align 4, !tbaa !62
  br label %12

12:                                               ; preds = %8, %6
  %13 = phi i32 [ %7, %6 ], [ %11, %8 ]
  ret i32 %13
}

; Function Attrs: mustprogress uwtable
define noundef i32 @_ZN6icu_7712FormatParser9setTokensERKNS_13UnicodeStringEiPi(ptr noundef nonnull align 8 dereferenceable(3216) %0, ptr noundef nonnull align 8 dereferenceable(64) %1, i32 noundef %2, ptr noundef %3) unnamed_addr #1 align 2 {
  %5 = alloca i32, align 4
  %6 = alloca ptr, align 8
  %7 = alloca ptr, align 8
  %8 = alloca i32, align 4
  %9 = alloca ptr, align 8
  %10 = alloca i32, align 4
  %11 = alloca i32, align 4
  %12 = alloca i16, align 2
  store ptr %0, ptr %6, align 8, !tbaa !69
  store ptr %1, ptr %7, align 8, !tbaa !60
  store i32 %2, ptr %8, align 4, !tbaa !14
  store ptr %3, ptr %9, align 8, !tbaa !20
  call void @llvm.lifetime.start.p0(i64 4, ptr %10) #13
  %13 = load i32, ptr %8, align 4, !tbaa !14
  store i32 %13, ptr %10, align 4, !tbaa !14
  %14 = load i32, ptr %10, align 4, !tbaa !14
  %15 = load ptr, ptr %7, align 8, !tbaa !60
  %16 = call noundef i32 @_ZNK6icu_7713UnicodeString6lengthEv(ptr noundef nonnull align 8 dereferenceable(64) %15)
  %17 = icmp sge i32 %14, %16
  br i1 %17, label %18, label %19

18:                                               ; preds = %4
  store i32 3, ptr %5, align 4
  store i32 1, ptr %11, align 4
  br label %70

19:                                               ; preds = %4
  br label %20

20:                                               ; preds = %60, %19
  call void @llvm.lifetime.start.p0(i64 2, ptr %12) #13
  %21 = load ptr, ptr %7, align 8, !tbaa !60
  %22 = load i32, ptr %10, align 4, !tbaa !14
  %23 = call noundef zeroext i16 @_ZNK6icu_7713UnicodeString6charAtEi(ptr noundef nonnull align 8 dereferenceable(64) %21, i32 noundef %22)
  store i16 %23, ptr %12, align 2, !tbaa !104
  %24 = load i16, ptr %12, align 2, !tbaa !104
  %25 = zext i16 %24 to i32
  %26 = icmp sge i32 %25, 65
  br i1 %26, label %27, label %31

27:                                               ; preds = %20
  %28 = load i16, ptr %12, align 2, !tbaa !104
  %29 = zext i16 %28 to i32
  %30 = icmp sle i32 %29, 90
  br i1 %30, label %39, label %31

31:                                               ; preds = %27, %20
  %32 = load i16, ptr %12, align 2, !tbaa !104
  %33 = zext i16 %32 to i32
  %34 = icmp sge i32 %33, 97
  br i1 %34, label %35, label %42

35:                                               ; preds = %31
  %36 = load i16, ptr %12, align 2, !tbaa !104
  %37 = zext i16 %36 to i32
  %38 = icmp sle i32 %37, 122
  br i1 %38, label %39, label %42

39:                                               ; preds = %35, %27
  %40 = load i32, ptr %10, align 4, !tbaa !14
  %41 = add nsw i32 %40, 1
  store i32 %41, ptr %10, align 4, !tbaa !14
  br label %45

42:                                               ; preds = %35, %31
  %43 = load i32, ptr %10, align 4, !tbaa !14
  store i32 %43, ptr %8, align 4, !tbaa !14
  %44 = load ptr, ptr %9, align 8, !tbaa !20
  store i32 1, ptr %44, align 4, !tbaa !14
  store i32 1, ptr %5, align 4
  store i32 1, ptr %11, align 4
  br label %57

45:                                               ; preds = %39
  %46 = load ptr, ptr %7, align 8, !tbaa !60
  %47 = load i32, ptr %10, align 4, !tbaa !14
  %48 = call noundef zeroext i16 @_ZNK6icu_7713UnicodeString6charAtEi(ptr noundef nonnull align 8 dereferenceable(64) %46, i32 noundef %47)
  %49 = zext i16 %48 to i32
  %50 = load ptr, ptr %7, align 8, !tbaa !60
  %51 = load i32, ptr %8, align 4, !tbaa !14
  %52 = call noundef zeroext i16 @_ZNK6icu_7713UnicodeString6charAtEi(ptr noundef nonnull align 8 dereferenceable(64) %50, i32 noundef %51)
  %53 = zext i16 %52 to i32
  %54 = icmp ne i32 %49, %53
  br i1 %54, label %55, label %56

55:                                               ; preds = %45
  store i32 2, ptr %11, align 4
  br label %57

56:                                               ; preds = %45
  store i32 0, ptr %11, align 4
  br label %57

57:                                               ; preds = %56, %55, %42
  call void @llvm.lifetime.end.p0(i64 2, ptr %12) #13
  %58 = load i32, ptr %11, align 4
  switch i32 %58, label %70 [
    i32 0, label %59
    i32 2, label %65
  ]

59:                                               ; preds = %57
  br label %60

60:                                               ; preds = %59
  %61 = load i32, ptr %10, align 4, !tbaa !14
  %62 = load ptr, ptr %7, align 8, !tbaa !60
  %63 = call noundef i32 @_ZNK6icu_7713UnicodeString6lengthEv(ptr noundef nonnull align 8 dereferenceable(64) %62)
  %64 = icmp sle i32 %61, %63
  br i1 %64, label %20, label %65, !llvm.loop !269

65:                                               ; preds = %60, %57
  %66 = load i32, ptr %10, align 4, !tbaa !14
  %67 = load i32, ptr %8, align 4, !tbaa !14
  %68 = sub nsw i32 %66, %67
  %69 = load ptr, ptr %9, align 8, !tbaa !20
  store i32 %68, ptr %69, align 4, !tbaa !14
  store i32 1, ptr %5, align 4
  store i32 1, ptr %11, align 4
  br label %70

70:                                               ; preds = %65, %57, %18
  call void @llvm.lifetime.end.p0(i64 4, ptr %10) #13
  %71 = load i32, ptr %5, align 4
  ret i32 %71
}