; Function Attrs: mustprogress nofree norecurse nosync nounwind memory(read, argmem: readwrite, inaccessiblemem: none) uwtable
define noundef range(i32 1, 4) i32 @_ZN6icu_7712FormatParser9setTokensERKNS_13UnicodeStringEiPi(ptr nonnull readnone align 8 captures(none) %0, ptr noundef nonnull readonly align 8 captures(none) dereferenceable(64) %1, i32 noundef %2, ptr noundef writeonly captures(none) %3) unnamed_addr #31 align 2 {
  %5 = getelementptr inbounds nuw i8, ptr %1, i64 8
  %6 = load i16, ptr %5, align 8, !tbaa !17
  %7 = icmp slt i16 %6, 0
  %8 = ashr i16 %6, 5
  %9 = sext i16 %8 to i32
  %10 = getelementptr inbounds nuw i8, ptr %1, i64 12
  %11 = load i32, ptr %10, align 4
  %12 = select i1 %7, i32 %11, i32 %9
  %.fr54 = freeze i32 %12
  %.not = icmp slt i32 %2, %.fr54
  br i1 %.not, label %.preheader, label %51

.preheader:                                       ; preds = %4
  %13 = and i16 %6, 2
  %.not.i.i.i = icmp eq i16 %13, 0
  %14 = getelementptr inbounds nuw i8, ptr %1, i64 10
  %15 = getelementptr inbounds nuw i8, ptr %1, i64 24
  %16 = load ptr, ptr %15, align 8
  %17 = select i1 %.not.i.i.i, ptr %16, ptr %14
  %18 = icmp ult i32 %2, %.fr54
  %19 = sext i32 %2 to i64
  %20 = getelementptr inbounds i16, ptr %17, i64 %19
  %21 = sext i32 %.fr54 to i64
  br i1 %18, label %.preheader.split.us, label %.preheader.split

.preheader.split.us:                              ; preds = %.preheader, %_ZNK6icu_7713UnicodeString6charAtEi.exit38.us
  %indvars.iv59 = phi i64 [ %indvars.iv.next60, %_ZNK6icu_7713UnicodeString6charAtEi.exit38.us ], [ %19, %.preheader ]
  %22 = trunc nsw i64 %indvars.iv59 to i32
  %23 = icmp ugt i32 %.fr54, %22
  br i1 %23, label %_ZNK6icu_7713UnicodeString6charAtEi.exit.us, label %.sink.split

_ZNK6icu_7713UnicodeString6charAtEi.exit.us:      ; preds = %.preheader.split.us
  %24 = getelementptr inbounds i16, ptr %17, i64 %indvars.iv59
  %25 = load i16, ptr %24, align 2, !tbaa !79
  %26 = and i16 %25, -33
  %27 = add i16 %26, -65
  %28 = icmp ult i16 %27, 26
  br i1 %28, label %29, label %.sink.split

29:                                               ; preds = %_ZNK6icu_7713UnicodeString6charAtEi.exit.us
  %indvars.iv.next60 = add nuw nsw i64 %indvars.iv59, 1
  %30 = trunc nsw i64 %indvars.iv.next60 to i32
  %31 = icmp ugt i32 %.fr54, %30
  br i1 %31, label %32, label %_ZNK6icu_7713UnicodeString6charAtEi.exit38.us

32:                                               ; preds = %29
  %33 = getelementptr inbounds i16, ptr %17, i64 %indvars.iv.next60
  %34 = load i16, ptr %33, align 2, !tbaa !79
  br label %_ZNK6icu_7713UnicodeString6charAtEi.exit38.us

_ZNK6icu_7713UnicodeString6charAtEi.exit38.us:    ; preds = %32, %29
  %.0.i.i36.us = phi i16 [ %34, %32 ], [ -1, %29 ]
  %35 = load i16, ptr %20, align 2, !tbaa !79
  %.not33.us = icmp eq i16 %.0.i.i36.us, %35
  %.not34.not.us = icmp slt i64 %indvars.iv59, %21
  %or.cond = and i1 %.not33.us, %.not34.not.us
  br i1 %or.cond, label %.preheader.split.us, label %.split.us, !llvm.loop !181

.preheader.split:                                 ; preds = %.preheader, %_ZNK6icu_7713UnicodeString6charAtEi.exit38
  %indvars.iv = phi i64 [ %indvars.iv.next, %_ZNK6icu_7713UnicodeString6charAtEi.exit38 ], [ %19, %.preheader ]
  %36 = trunc nsw i64 %indvars.iv to i32
  %37 = icmp ugt i32 %.fr54, %36
  br i1 %37, label %_ZNK6icu_7713UnicodeString6charAtEi.exit, label %.sink.split

_ZNK6icu_7713UnicodeString6charAtEi.exit:         ; preds = %.preheader.split
  %38 = getelementptr inbounds i16, ptr %17, i64 %indvars.iv
  %39 = load i16, ptr %38, align 2, !tbaa !79
  %40 = and i16 %39, -33
  %41 = add i16 %40, -65
  %42 = icmp ult i16 %41, 26
  br i1 %42, label %43, label %.sink.split

43:                                               ; preds = %_ZNK6icu_7713UnicodeString6charAtEi.exit
  %indvars.iv.next = add nuw nsw i64 %indvars.iv, 1
  %44 = trunc nsw i64 %indvars.iv.next to i32
  %45 = icmp ugt i32 %.fr54, %44
  br i1 %45, label %46, label %_ZNK6icu_7713UnicodeString6charAtEi.exit38

46:                                               ; preds = %43
  %47 = getelementptr inbounds i16, ptr %17, i64 %indvars.iv.next
  %48 = load i16, ptr %47, align 2, !tbaa !79
  %49 = icmp eq i16 %48, -1
  br label %_ZNK6icu_7713UnicodeString6charAtEi.exit38

_ZNK6icu_7713UnicodeString6charAtEi.exit38:       ; preds = %43, %46
  %.0.i.i36 = phi i1 [ %49, %46 ], [ true, %43 ]
  %.not34.not = icmp slt i64 %indvars.iv, %21
  %or.cond53 = and i1 %.0.i.i36, %.not34.not
  br i1 %or.cond53, label %.preheader.split, label %.split.us, !llvm.loop !181

.split.us:                                        ; preds = %_ZNK6icu_7713UnicodeString6charAtEi.exit38, %_ZNK6icu_7713UnicodeString6charAtEi.exit38.us
  %.us-phi = phi i32 [ %30, %_ZNK6icu_7713UnicodeString6charAtEi.exit38.us ], [ %44, %_ZNK6icu_7713UnicodeString6charAtEi.exit38 ]
  %50 = sub nsw i32 %.us-phi, %2
  br label %.sink.split

.sink.split:                                      ; preds = %.preheader.split, %_ZNK6icu_7713UnicodeString6charAtEi.exit, %_ZNK6icu_7713UnicodeString6charAtEi.exit.us, %.preheader.split.us, %.split.us
  %.sink = phi i32 [ %50, %.split.us ], [ 1, %.preheader.split.us ], [ 1, %_ZNK6icu_7713UnicodeString6charAtEi.exit.us ], [ 1, %_ZNK6icu_7713UnicodeString6charAtEi.exit ], [ 1, %.preheader.split ]
  store i32 %.sink, ptr %3, align 4, !tbaa !12
  br label %51

51:                                               ; preds = %.sink.split, %4
  %.0 = phi i32 [ 3, %4 ], [ 1, %.sink.split ]
  ret i32 %.0
}